(lp0
(I20
(I255
I255
I255
tp1
tp2
ag2
a(I15
(I255
I255
I255
tp3
tp4
ag4
a(I12
(I255
I255
I255
tp5
tp6
ag6
a(I5
(I255
I255
I255
tp7
tp8
ag8
a(I6
(I255
I255
I255
tp9
tp10
ag10
a(I5
(I255
I255
I255
tp11
tp12
ag12
a(I5
(I255
I255
I255
tp13
tp14
ag14
a(I5
(I255
I255
I255
tp15
tp16
ag16
a(I5
(I255
I255
I255
tp17
tp18
ag18
a(I4
(I255
I255
I255
tp19
tp20
ag20
a(I3
(I255
I255
I255
tp21
tp22
ag22
a(I3
(I255
I255
I255
tp23
tp24
ag24
a(I3
(I255
I255
I255
tp25
tp26
ag26
a(I3
(I255
I255
I255
tp27
tp28
ag28
a(I3
(I255
I255
I255
tp29
tp30
ag30
a(I2
(I255
I255
I254
tp31
tp32
ag32
a(I2
(I255
I255
I254
tp33
tp34
ag34
a(I2
(I255
I255
I254
tp35
tp36
ag36
a(I2
(I255
I255
I254
tp37
tp38
ag38
a(I2
(I255
I255
I254
tp39
tp40
ag40
a(I2
(I255
I255
I254
tp41
tp42
ag42
a(I2
(I255
I255
I254
tp43
tp44
ag44
a(I2
(I255
I255
I254
tp45
tp46
ag46
a(I2
(I255
I255
I254
tp47
tp48
ag48
a(I2
(I255
I255
I254
tp49
tp50
ag50
a(I2
(I255
I255
I254
tp51
tp52
ag52
a(I1
(I255
I255
I255
tp53
tp54
ag54
a(I1
(I255
I255
I255
tp55
tp56
ag56
a(I1
(I255
I255
I255
tp57
tp58
ag58
a(I1
(I255
I255
I255
tp59
tp60
ag60
a(I2
(I255
I255
I253
tp61
tp62
ag62
a(I2
(I255
I255
I253
tp63
tp64
ag64
a(I2
(I255
I255
I253
tp65
tp66
ag66
a(I2
(I255
I255
I253
tp67
tp68
ag68
a(I2
(I255
I255
I253
tp69
tp70
ag70
a(I2
(I255
I255
I253
tp71
tp72
ag72
a(I2
(I255
I255
I253
tp73
tp74
ag74
a(I2
(I255
I255
I253
tp75
tp76
ag76
a(I2
(I255
I255
I253
tp77
tp78
ag78
a(I2
(I255
I255
I253
tp79
tp80
ag80
a(I2
(I255
I255
I253
tp81
tp82
ag82
a(I2
(I255
I255
I253
tp83
tp84
ag84
a(I2
(I255
I255
I253
tp85
tp86
ag86
a(I2
(I255
I255
I253
tp87
tp88
ag88
a(I2
(I255
I255
I253
tp89
tp90
ag90
a(I2
(I255
I255
I253
tp91
tp92
ag92
a(I2
(I255
I255
I253
tp93
tp94
ag94
a(I2
(I255
I255
I253
tp95
tp96
ag96
a(I2
(I255
I255
I253
tp97
tp98
ag98
a(I2
(I255
I255
I253
tp99
tp100
ag100
a(I2
(I255
I255
I253
tp101
tp102
ag102
a(I2
(I255
I255
I253
tp103
tp104
ag104
a(I2
(I255
I255
I253
tp105
tp106
ag106
a(I2
(I255
I255
I253
tp107
tp108
ag108
a(I2
(I255
I255
I253
tp109
tp110
ag110
a(I2
(I255
I255
I253
tp111
tp112
ag112
a(I2
(I255
I255
I253
tp113
tp114
ag114
a(I2
(I255
I255
I253
tp115
tp116
ag116
a(I2
(I255
I255
I253
tp117
tp118
ag118
a(I2
(I255
I255
I253
tp119
tp120
ag120
a(I2
(I255
I255
I249
tp121
tp122
ag122
a(I2
(I255
I255
I249
tp123
tp124
ag124
a(I2
(I255
I255
I249
tp125
tp126
ag126
a(I2
(I255
I255
I249
tp127
tp128
ag128
a(I2
(I255
I255
I249
tp129
tp130
ag130
a(I2
(I255
I255
I249
tp131
tp132
ag132
a(I2
(I255
I255
I249
tp133
tp134
ag134
a(I2
(I255
I255
I249
tp135
tp136
ag136
a(I2
(I255
I255
I249
tp137
tp138
ag138
a(I2
(I255
I255
I249
tp139
tp140
ag140
a(I2
(I255
I255
I249
tp141
tp142
ag142
a(I2
(I255
I255
I249
tp143
tp144
ag144
a(I2
(I255
I255
I249
tp145
tp146
ag146
a(I2
(I255
I255
I249
tp147
tp148
ag148
a(I2
(I255
I255
I249
tp149
tp150
ag150
a(I2
(I255
I255
I249
tp151
tp152
ag152
a(I2
(I255
I255
I249
tp153
tp154
ag154
a(I2
(I255
I255
I249
tp155
tp156
ag156
a(I2
(I255
I255
I249
tp157
tp158
ag158
a(I2
(I255
I255
I249
tp159
tp160
ag160
a(I2
(I255
I255
I249
tp161
tp162
ag162
a(I2
(I255
I255
I249
tp163
tp164
ag164
a(I2
(I255
I255
I249
tp165
tp166
ag166
a(I2
(I255
I255
I249
tp167
tp168
ag168
a(I2
(I255
I255
I249
tp169
tp170
ag170
a(I2
(I255
I255
I249
tp171
tp172
ag172
a(I2
(I255
I255
I249
tp173
tp174
ag174
a(I2
(I255
I255
I249
tp175
tp176
ag176
a(I2
(I255
I255
I249
tp177
tp178
ag178
a(I2
(I255
I255
I249
tp179
tp180
ag180
a(I2
(I255
I255
I249
tp181
tp182
ag182
a(I2
(I255
I255
I249
tp183
tp184
ag184
a(I2
(I255
I255
I249
tp185
tp186
ag186
a(I2
(I255
I255
I249
tp187
tp188
ag188
a(I2
(I255
I255
I249
tp189
tp190
ag190
a(I2
(I255
I255
I249
tp191
tp192
ag192
a(I2
(I255
I255
I249
tp193
tp194
ag194
a(I2
(I255
I255
I249
tp195
tp196
ag196
a(I2
(I255
I255
I249
tp197
tp198
ag198
a(I2
(I255
I255
I249
tp199
tp200
ag200
a(I2
(I255
I255
I249
tp201
tp202
ag202
a(I2
(I255
I255
I249
tp203
tp204
ag204
a(I2
(I255
I255
I249
tp205
tp206
ag206
a(I2
(I255
I255
I249
tp207
tp208
ag208
a(I1
(I255
I252
I246
tp209
tp210
ag210
a(I1
(I255
I250
I231
tp211
tp212
ag212
a(I1
(I255
I253
I192
tp213
tp214
ag214
a(I1
(I255
I214
I195
tp215
tp216
ag216
a(I1
(I255
I226
I138
tp217
tp218
ag218
a(I1
(I255
I170
I159
tp219
tp220
ag220
a(I1
(I255
I149
I139
tp221
tp222
ag222
a(I1
(I255
I131
I128
tp223
tp224
ag224
a(I1
(I255
I105
I89
tp225
tp226
ag226
a(I1
(I255
I65
I68
tp227
tp228
ag228
a(I1
(I255
I37
I33
tp229
tp230
ag230
a(I1
(I3
I255
I3
tp231
tp232
ag232
a(I108
(I11
I10
I255
tp233
tp234
ag234
a(I5
(I33
I33
I255
tp235
tp236
ag236
a(I76
(I54
I52
I255
tp237
tp238
ag238
a(I7
(I75
I75
I255
tp239
tp240
ag240
a(I30
(I97
I97
I255
tp241
tp242
ag242
a(I33
(I118
I118
I255
tp243
tp244
ag244
a(I2
(I139
I140
I255
tp245
tp246
ag246
a(I2
(I160
I160
I255
tp247
tp248
ag248
a(I3
(I182
I185
I255
tp249
tp250
ag250
a(I3
(I203
I205
I255
tp251
tp252
ag252
a(I2
(I223
I226
I255
tp253
tp254
ag254
a(I1
(I244
I246
I255
tp255
tp256
ag256
a(I241
(I255
I255
I255
tp257
tp258
ag258
a(I271
(I255
I255
I255
tp259
tp260
ag260
a(I293
(I255
I255
I255
tp261
tp262
ag262
a(I310
(I255
I255
I255
tp263
tp264
ag264
a(I307
(I255
I255
I255
tp265
tp266
ag266
a(I294
(I255
I255
I255
tp267
tp268
ag268
a(I272
(I255
I255
I255
tp269
tp270
ag270
a(I375
(I255
I255
I255
tp271
tp272
ag272
a(I412
(I255
I255
I255
tp273
tp274
ag274
a(I421
(I255
I255
I255
tp275
tp276
ag276
a(I421
(I255
I255
I255
tp277
tp278
ag278
a(I436
(I255
I255
I255
tp279
tp280
ag280
a(I424
(I255
I255
I255
tp281
tp282
ag282
a(I446
(I255
I255
I255
tp283
tp284
ag284
a(I431
(I255
I255
I255
tp285
tp286
ag286
a(I453
(I255
I255
I255
tp287
tp288
ag288
a(I368
(I255
I255
I255
tp289
tp290
ag290
a(I426
(I255
I255
I255
tp291
tp292
ag292
a(I364
(I255
I255
I255
tp293
tp294
ag294
a(I361
(I255
I255
I255
tp295
tp296
ag296
a(I366
(I255
I255
I255
tp297
tp298
ag298
a(I356
(I255
I255
I255
tp299
tp300
ag300
a(I251
(I255
I255
I255
tp301
tp302
ag302
a(I252
(I255
I255
I255
tp303
tp304
ag304
a(I243
(I255
I255
I255
tp305
tp306
ag306
a(I242
(I255
I255
I255
tp307
tp308
ag308
a(I221
(I255
I255
I255
tp309
tp310
ag310
a(I209
(I255
I255
I255
tp311
tp312
ag312
a(I213
(I255
I255
I255
tp313
tp314
ag314
a(I187
(I255
I255
I255
tp315
tp316
ag316
a(I209
(I255
I255
I255
tp317
tp318
ag318
a(I252
(I255
I255
I255
tp319
tp320
ag320
a(I270
(I255
I255
I255
tp321
tp322
ag322
a(I220
(I255
I255
I255
tp323
tp324
ag324
a(I232
(I255
I255
I255
tp325
tp326
ag326
a(I238
(I255
I255
I255
tp327
tp328
ag328
a(I260
(I255
I255
I255
tp329
tp330
ag330
a(I324
(I255
I255
I255
tp331
tp332
ag332
a(I251
(I255
I255
I255
tp333
tp334
ag334
a(I272
(I255
I255
I255
tp335
tp336
ag336
a(I306
(I255
I255
I255
tp337
tp338
ag338
a(I268
(I255
I255
I255
tp339
tp340
ag340
a(I272
(I255
I255
I255
tp341
tp342
ag342
a(I264
(I255
I255
I255
tp343
tp344
ag344
a(I288
(I255
I255
I255
tp345
tp346
ag346
a(I261
(I255
I255
I255
tp347
tp348
ag348
a(I238
(I255
I255
I255
tp349
tp350
ag350
a(I216
(I255
I255
I255
tp351
tp352
ag352
a(I267
(I255
I255
I255
tp353
tp354
ag354
a(I281
(I255
I255
I255
tp355
tp356
ag356
a(I262
(I255
I255
I255
tp357
tp358
ag358
a(I354
(I255
I255
I255
tp359
tp360
ag360
a(I269
(I255
I255
I255
tp361
tp362
ag362
a(I314
(I255
I255
I255
tp363
tp364
ag364
a(I308
(I255
I255
I255
tp365
tp366
ag366
a(I256
(I255
I255
I255
tp367
tp368
ag368
a(I274
(I255
I255
I255
tp369
tp370
ag370
a(I315
(I255
I255
I255
tp371
tp372
ag372
a(I217
(I255
I255
I255
tp373
tp374
ag374
a(I251
(I255
I255
I255
tp375
tp376
ag376
a(I205
(I255
I255
I255
tp377
tp378
ag378
a(I216
(I255
I255
I255
tp379
tp380
ag380
a(I163
(I255
I255
I255
tp381
tp382
ag382
a(I177
(I255
I255
I255
tp383
tp384
ag384
a(I195
(I255
I255
I255
tp385
tp386
ag386
a(I166
(I255
I255
I255
tp387
tp388
ag388
a(I199
(I255
I255
I255
tp389
tp390
ag390
a(I270
(I255
I255
I255
tp391
tp392
ag392
a(I246
(I255
I255
I255
tp393
tp394
ag394
a(I230
(I255
I255
I255
tp395
tp396
ag396
a(I231
(I255
I255
I255
tp397
tp398
ag398
a(I226
(I255
I255
I255
tp399
tp400
ag400
a(I224
(I255
I255
I255
tp401
tp402
ag402
a(I196
(I255
I255
I255
tp403
tp404
ag404
a(I252
(I255
I255
I255
tp405
tp406
ag406
a(I253
(I255
I255
I255
tp407
tp408
ag408
a(I250
(I255
I255
I255
tp409
tp410
ag410
a(I313
(I255
I255
I255
tp411
tp412
ag412
a(I243
(I255
I255
I255
tp413
tp414
ag414
a(I247
(I255
I255
I255
tp415
tp416
ag416
a(I246
(I255
I255
I255
tp417
tp418
ag418
a(I241
(I255
I255
I255
tp419
tp420
ag420
a(I219
(I255
I255
I255
tp421
tp422
ag422
a(I5253
(I255
I255
I255
tp423
tp424
ag424
a(I4517
(I255
I255
I255
tp425
tp426
ag426
a(I889
(I255
I255
I255
tp427
tp428
ag428
a(I2673
(I255
I255
I255
tp429
tp430
ag430
a(I578
(I255
I255
I255
tp431
tp432
ag432
a(I3825
(I255
I255
I255
tp433
tp434
ag434
a(I828
(I255
I255
I255
tp435
tp436
ag436
a(I1640
(I255
I255
I255
tp437
tp438
ag438
a(I6318
(I255
I255
I255
tp439
tp440
ag440
a(I1333
(I255
I255
I255
tp441
tp442
ag442
a(I835
(I255
I255
I255
tp443
tp444
ag444
a(I668
(I255
I255
I255
tp445
tp446
ag446
a(I497
(I255
I255
I255
tp447
tp448
ag448
a(I515
(I255
I255
I255
tp449
tp450
ag450
a(I338
(I255
I255
I255
tp451
tp452
ag452
a(I344
(I255
I255
I255
tp453
tp454
ag454
a(I351
(I255
I255
I255
tp455
tp456
ag456
a(I343
(I255
I255
I255
tp457
tp458
ag458
a(I305
(I255
I255
I255
tp459
tp460
ag460
a(I266
(I255
I255
I255
tp461
tp462
ag462
a(I254
(I255
I255
I255
tp463
tp464
ag464
a(I214
(I255
I255
I255
tp465
tp466
ag466
a(I230
(I255
I255
I255
tp467
tp468
ag468
a(I244
(I255
I255
I255
tp469
tp470
ag470
a(I231
(I255
I255
I255
tp471
tp472
ag472
a(I287
(I255
I255
I255
tp473
tp474
ag474
a(I259
(I255
I255
I255
tp475
tp476
ag476
a(I257
(I255
I255
I255
tp477
tp478
ag478
a(I236
(I255
I255
I255
tp479
tp480
ag480
a(I274
(I255
I255
I255
tp481
tp482
ag482
a(I321
(I255
I255
I255
tp483
tp484
ag484
a(I280
(I255
I255
I255
tp485
tp486
ag486
a(I255
(I255
I255
I255
tp487
tp488
ag488
a(I235
(I255
I255
I255
tp489
tp490
ag490
a(I213
(I255
I255
I255
tp491
tp492
ag492
a(I209
(I255
I255
I255
tp493
tp494
ag494
a(I192
(I255
I255
I255
tp495
tp496
ag496
a(I182
(I255
I255
I255
tp497
tp498
ag498
a(I259
(I255
I255
I255
tp499
tp500
ag500
a(I273
(I255
I255
I255
tp501
tp502
ag502
a(I232
(I255
I255
I255
tp503
tp504
ag504
a(I243
(I255
I255
I255
tp505
tp506
ag506
a(I239
(I255
I255
I255
tp507
tp508
ag508
a(I214
(I255
I255
I255
tp509
tp510
ag510
a(I264
(I255
I255
I255
tp511
tp512
ag512
a(I265
(I255
I255
I255
tp513
tp514
ag514
a(I236
(I255
I255
I255
tp515
tp516
ag516
a(I191
(I255
I255
I255
tp517
tp518
ag518
a(I205
(I255
I255
I255
tp519
tp520
ag520
a(I223
(I255
I255
I255
tp521
tp522
ag522
a(I215
(I255
I255
I255
tp523
tp524
ag524
a(I207
(I255
I255
I255
tp525
tp526
ag526
a(I208
(I255
I255
I255
tp527
tp528
ag528
a(I216
(I255
I255
I255
tp529
tp530
ag530
a(I257
(I255
I255
I255
tp531
tp532
ag532
a(I260
(I255
I255
I255
tp533
tp534
ag534
a(I270
(I255
I255
I255
tp535
tp536
ag536
a(I280
(I255
I255
I255
tp537
tp538
ag538
a(I295
(I255
I255
I255
tp539
tp540
ag540
a(I377
(I255
I255
I255
tp541
tp542
ag542
a(I423
(I255
I255
I255
tp543
tp544
ag544
a(I390
(I255
I255
I255
tp545
tp546
ag546
a(I346
(I255
I255
I255
tp547
tp548
ag548
a(I328
(I255
I255
I255
tp549
tp550
ag550
a(I296
(I255
I255
I255
tp551
tp552
ag552
a(I340
(I255
I255
I255
tp553
tp554
ag554
a(I325
(I255
I255
I255
tp555
tp556
ag556
a(I383
(I255
I255
I255
tp557
tp558
ag558
a(I342
(I255
I255
I255
tp559
tp560
ag560
a(I318
(I255
I255
I255
tp561
tp562
ag562
a(I250
(I255
I255
I255
tp563
tp564
ag564
a(I257
(I255
I255
I255
tp565
tp566
ag566
a(I267
(I255
I255
I255
tp567
tp568
ag568
a(I268
(I255
I255
I255
tp569
tp570
ag570
a(I226
(I255
I255
I255
tp571
tp572
ag572
a(I246
(I255
I255
I255
tp573
tp574
ag574
a(I258
(I255
I255
I255
tp575
tp576
ag576
a(I240
(I255
I255
I255
tp577
tp578
ag578
a(I282
(I255
I255
I255
tp579
tp580
ag580
a(I207
(I255
I255
I255
tp581
tp582
ag582
a(I250
(I255
I255
I255
tp583
tp584
ag584
a(I260
(I255
I255
I255
tp585
tp586
ag586
a(I235
(I255
I255
I255
tp587
tp588
ag588
a(I203
(I255
I255
I255
tp589
tp590
ag590
a(I182
(I255
I255
I255
tp591
tp592
ag592
a(I227
(I255
I255
I255
tp593
tp594
ag594
a(I257
(I255
I255
I255
tp595
tp596
ag596
a(I209
(I255
I255
I255
tp597
tp598
ag598
a(I259
(I255
I255
I255
tp599
tp600
ag600
a(I193
(I255
I255
I255
tp601
tp602
ag602
a(I211
(I255
I255
I255
tp603
tp604
ag604
a(I264
(I255
I255
I255
tp605
tp606
ag606
a(I231
(I255
I255
I255
tp607
tp608
ag608
a(I199
(I255
I255
I255
tp609
tp610
ag610
a(I188
(I255
I255
I255
tp611
tp612
ag612
a(I158
(I255
I255
I255
tp613
tp614
ag614
a(I175
(I255
I255
I255
tp615
tp616
ag616
a(I218
(I255
I255
I255
tp617
tp618
ag618
a(I250
(I255
I255
I255
tp619
tp620
ag620
a(I286
(I255
I255
I255
tp621
tp622
ag622
a(I267
(I255
I255
I255
tp623
tp624
ag624
a(I256
(I255
I255
I255
tp625
tp626
ag626
a(I286
(I255
I255
I255
tp627
tp628
ag628
a(I298
(I255
I255
I255
tp629
tp630
ag630
a(I202
(I255
I255
I255
tp631
tp632
ag632
a(I245
(I255
I255
I255
tp633
tp634
ag634
a(I245
(I255
I255
I255
tp635
tp636
ag636
a(I258
(I255
I255
I255
tp637
tp638
ag638
a(I246
(I255
I255
I255
tp639
tp640
ag640
a(I315
(I255
I255
I255
tp641
tp642
ag642
a(I341
(I255
I255
I255
tp643
tp644
ag644
a(I322
(I255
I255
I255
tp645
tp646
ag646
a(I374
(I255
I255
I255
tp647
tp648
ag648
a(I362
(I255
I255
I255
tp649
tp650
ag650
a(I348
(I255
I255
I255
tp651
tp652
ag652
a(I365
(I255
I255
I255
tp653
tp654
ag654
a(I361
(I255
I255
I255
tp655
tp656
ag656
a(I357
(I255
I255
I255
tp657
tp658
ag658
a(I367
(I255
I255
I255
tp659
tp660
ag660
a(I185
(I255
I255
I255
tp661
tp662
ag662
a(I166
(I255
I255
I255
tp663
tp664
ag664
a(I159
(I255
I255
I255
tp665
tp666
ag666
a(I212
(I255
I255
I255
tp667
tp668
ag668
a(I214
(I255
I255
I255
tp669
tp670
ag670
a(I198
(I255
I255
I255
tp671
tp672
ag672
a(I201
(I255
I255
I255
tp673
tp674
ag674
a(I169
(I255
I255
I255
tp675
tp676
ag676
a(I161
(I255
I255
I255
tp677
tp678
ag678
a(I178
(I255
I255
I255
tp679
tp680
ag680
a(I205
(I255
I255
I255
tp681
tp682
ag682
a(I258
(I255
I255
I255
tp683
tp684
ag684
a(I231
(I255
I255
I255
tp685
tp686
ag686
a(I257
(I255
I255
I255
tp687
tp688
ag688
a(I265
(I255
I255
I255
tp689
tp690
ag690
a(I83
(I255
I255
I255
tp691
tp692
ag692
a(I96
(I255
I255
I255
tp693
tp694
ag694
a(I113
(I255
I255
I255
tp695
tp696
ag696
a(I114
(I255
I255
I255
tp697
tp698
ag698
a(I148
(I255
I255
I255
tp699
tp700
ag700
a(I150
(I255
I255
I255
tp701
tp702
ag702
a(I168
(I255
I255
I255
tp703
tp704
ag704
a(I168
(I255
I255
I255
tp705
tp706
ag706
a(I134
(I255
I255
I255
tp707
tp708
ag708
a(I153
(I255
I255
I255
tp709
tp710
ag710
a(I172
(I255
I255
I255
tp711
tp712
ag712
a(I182
(I255
I255
I255
tp713
tp714
ag714
a(I172
(I255
I255
I255
tp715
tp716
ag716
a(I182
(I255
I255
I255
tp717
tp718
ag718
a(I186
(I255
I255
I255
tp719
tp720
ag720
a(I159
(I255
I255
I255
tp721
tp722
ag722
a(I187
(I255
I255
I255
tp723
tp724
ag724
a(I192
(I255
I255
I255
tp725
tp726
ag726
a(I194
(I255
I255
I255
tp727
tp728
ag728
a(I225
(I255
I255
I255
tp729
tp730
ag730
a(I202
(I255
I255
I255
tp731
tp732
ag732
a(I180
(I255
I255
I255
tp733
tp734
ag734
a(I181
(I255
I255
I255
tp735
tp736
ag736
a(I180
(I255
I255
I255
tp737
tp738
ag738
a(I172
(I255
I255
I255
tp739
tp740
ag740
a(I180
(I255
I255
I255
tp741
tp742
ag742
a(I264
(I255
I255
I255
tp743
tp744
ag744
a(I282
(I255
I255
I255
tp745
tp746
ag746
a(I284
(I255
I255
I255
tp747
tp748
ag748
a(I277
(I255
I255
I255
tp749
tp750
ag750
a(I189
(I255
I255
I255
tp751
tp752
ag752
a(I180
(I255
I255
I255
tp753
tp754
ag754
a(I245
(I255
I255
I255
tp755
tp756
ag756
a(I252
(I255
I255
I255
tp757
tp758
ag758
a(I254
(I255
I255
I255
tp759
tp760
ag760
a(I287
(I255
I255
I255
tp761
tp762
ag762
a(I291
(I255
I255
I255
tp763
tp764
ag764
a(I268
(I255
I255
I255
tp765
tp766
ag766
a(I278
(I255
I255
I255
tp767
tp768
ag768
a(I266
(I255
I255
I255
tp769
tp770
ag770
a(I245
(I255
I255
I255
tp771
tp772
ag772
a(I190
(I255
I255
I255
tp773
tp774
ag774
a(I211
(I255
I255
I255
tp775
tp776
ag776
a(I192
(I255
I255
I255
tp777
tp778
ag778
a(I188
(I255
I255
I255
tp779
tp780
ag780
a(I182
(I255
I255
I255
tp781
tp782
ag782
a(I187
(I255
I255
I255
tp783
tp784
ag784
a(I192
(I255
I255
I255
tp785
tp786
ag786
a(I157
(I255
I255
I255
tp787
tp788
ag788
a(I193
(I255
I255
I255
tp789
tp790
ag790
a(I189
(I255
I255
I255
tp791
tp792
ag792
a(I189
(I255
I255
I255
tp793
tp794
ag794
a(I263
(I255
I255
I255
tp795
tp796
ag796
a(I250
(I255
I255
I255
tp797
tp798
ag798
a(I234
(I255
I255
I255
tp799
tp800
ag800
a(I240
(I255
I255
I255
tp801
tp802
ag802
a(I150
(I255
I255
I255
tp803
tp804
ag804
a(I156
(I255
I255
I255
tp805
tp806
ag806
a(I177
(I255
I255
I255
tp807
tp808
ag808
a(I164
(I255
I255
I255
tp809
tp810
ag810
a(I200
(I255
I255
I255
tp811
tp812
ag812
a(I191
(I255
I255
I255
tp813
tp814
ag814
a(I204
(I255
I255
I255
tp815
tp816
ag816
a(I209
(I255
I255
I255
tp817
tp818
ag818
a(I196
(I255
I255
I255
tp819
tp820
ag820
a(I181
(I255
I255
I255
tp821
tp822
ag822
a(I166
(I255
I255
I255
tp823
tp824
ag824
a(I144
(I255
I255
I255
tp825
tp826
ag826
a(I145
(I255
I255
I255
tp827
tp828
ag828
a(I1
(I255
I255
I255
tp829
tp830
ag830
a(I1
(I255
I255
I255
tp831
tp832
ag832
a(I1
(I255
I255
I255
tp833
tp834
ag834
a(I1
(I255
I255
I255
tp835
tp836
ag836
a(I1
(I255
I255
I255
tp837
tp838
ag838
a(I1
(I255
I255
I255
tp839
tp840
ag840
a(I1
(I255
I255
I255
tp841
tp842
ag842
a(I1
(I255
I255
I255
tp843
tp844
ag844
a(I1
(I255
I255
I255
tp845
tp846
ag846
a(I1
(I255
I255
I255
tp847
tp848
ag848
a(I1
(I255
I255
I255
tp849
tp850
ag850
a(I1
(I255
I255
I255
tp851
tp852
ag852
a(I1
(I255
I255
I255
tp853
tp854
ag854
a(I1
(I255
I255
I255
tp855
tp856
ag856
a(I1
(I255
I255
I255
tp857
tp858
ag858
a(I1
(I255
I255
I255
tp859
tp860
ag860
a(I1
(I255
I255
I255
tp861
tp862
ag862
a(I1
(I255
I255
I255
tp863
tp864
ag864
a(I1
(I255
I255
I255
tp865
tp866
ag866
a(I1
(I255
I255
I255
tp867
tp868
ag868
a(I1
(I255
I255
I255
tp869
tp870
ag870
a(I1
(I255
I255
I255
tp871
tp872
ag872
a(I1
(I255
I255
I255
tp873
tp874
ag874
a(I1
(I255
I255
I255
tp875
tp876
ag876
a(I1
(I255
I255
I255
tp877
tp878
ag878
a(I1
(I255
I255
I255
tp879
tp880
ag880
a(I1
(I255
I255
I255
tp881
tp882
ag882
a(I1
(I255
I255
I255
tp883
tp884
ag884
a(I1
(I255
I255
I255
tp885
tp886
ag886
a(I1
(I255
I255
I255
tp887
tp888
ag888
a(I1
(I255
I255
I255
tp889
tp890
ag890
a(I1
(I255
I255
I255
tp891
tp892
ag892
a(I1
(I255
I255
I255
tp893
tp894
ag894
a(I1
(I255
I255
I255
tp895
tp896
ag896
a(I1
(I255
I255
I255
tp897
tp898
ag898
a(I1
(I255
I255
I255
tp899
tp900
ag900
a(I1
(I255
I255
I255
tp901
tp902
ag902
a(I1
(I255
I255
I255
tp903
tp904
ag904
a(I1
(I255
I255
I255
tp905
tp906
ag906
a(I1
(I255
I255
I255
tp907
tp908
ag908
a(I1
(I255
I255
I255
tp909
tp910
ag910
a(I1
(I255
I255
I255
tp911
tp912
ag912
a(I1
(I255
I255
I255
tp913
tp914
ag914
a(I1
(I255
I255
I255
tp915
tp916
ag916
a(I1
(I255
I255
I255
tp917
tp918
ag918
a(I1
(I255
I255
I255
tp919
tp920
ag920
a(I1
(I255
I255
I255
tp921
tp922
ag922
a(I1
(I255
I255
I255
tp923
tp924
ag924
a(I1
(I255
I255
I255
tp925
tp926
ag926
a(I1
(I255
I255
I255
tp927
tp928
ag928
a(I1
(I255
I255
I255
tp929
tp930
ag930
a(I1
(I255
I255
I255
tp931
tp932
ag932
a(I1
(I255
I176
I176
tp933
tp934
ag934
a(I1
(I255
I176
I176
tp935
tp936
ag936
a(I1
(I255
I176
I176
tp937
tp938
ag938
a(I6874
(I255
I255
I255
tp939
tp940
ag940
a(I7665
(I255
I255
I255
tp941
tp942
ag942
a(I457
(I255
I255
I255
tp943
tp944
ag944
a(I62
(I255
I255
I255
tp945
tp946
ag946
a(I489
(I255
I255
I255
tp947
tp948
ag948
a(I4560
(I255
I255
I255
tp949
tp950
ag950
a(I1156
(I255
I255
I255
tp951
tp952
ag952
a(I586
(I255
I255
I255
tp953
tp954
ag954
a(I5450
(I255
I255
I255
tp955
tp956
ag956
a(I445
(I255
I255
I255
tp957
tp958
ag958
a(I650
(I255
I255
I255
tp959
tp960
ag960
a(I610
(I255
I255
I255
tp961
tp962
ag962
a(I194
(I255
I255
I255
tp963
tp964
ag964
a(I13
(I255
I255
I255
tp965
tp966
ag966
a(I1
(I255
I255
I225
tp967
tp968
ag968
a(I1
(I255
I251
I219
tp969
tp970
ag970
a(I1
(I255
I238
I213
tp971
tp972
ag972
a(I1
(I255
I202
I174
tp973
tp974
ag974
a(I1
(I255
I175
I173
tp975
tp976
ag976
a(I1
(I255
I174
I174
tp977
tp978
ag978
a(I19
(I174
I175
I255
tp979
tp980
ag980
a(I19
(I174
I175
I255
tp981
tp982
ag982
a(I16
(I175
I175
I255
tp983
tp984
ag984
a(I1
(I255
I177
I173
tp985
tp986
ag986
a(I1
(I255
I177
I173
tp987
tp988
ag988
a(I1
(I255
I177
I173
tp989
tp990
ag990
a(I1
(I255
I176
I176
tp991
tp992
ag992
a(I1
(I255
I176
I177
tp993
tp994
ag994
a(I59
(I174
I174
I255
tp995
tp996
ag996
a(I1
(I255
I177
I175
tp997
tp998
ag998
a(I1
(I255
I180
I173
tp999
tp1000
ag1000
a(I1
(I255
I180
I171
tp1001
tp1002
ag1002
a(I1
(I255
I180
I173
tp1003
tp1004
ag1004
a(I1
(I255
I179
I172
tp1005
tp1006
ag1006
a(I2
(I255
I178
I171
tp1007
tp1008
ag1008
a(I42
(I174
I175
I255
tp1009
tp1010
ag1010
a(I42
(I174
I175
I255
tp1011
tp1012
ag1012
a(I42
(I174
I175
I255
tp1013
tp1014
ag1014
a(I52
(I174
I175
I255
tp1015
tp1016
ag1016
a(I3
(I255
I179
I172
tp1017
tp1018
ag1018
a(I1
(I255
I179
I173
tp1019
tp1020
ag1020
a(I1
(I255
I177
I176
tp1021
tp1022
ag1022
a(I1
(I255
I175
I176
tp1023
tp1024
ag1024
a(I1
(I255
I178
I177
tp1025
tp1026
ag1026
a(I1
(I255
I178
I177
tp1027
tp1028
ag1028
a(I2
(I255
I178
I177
tp1029
tp1030
ag1030
a(I1
(I255
I178
I177
tp1031
tp1032
ag1032
a(I1
(I255
I177
I176
tp1033
tp1034
ag1034
a(I1
(I255
I178
I177
tp1035
tp1036
ag1036
a(I2
(I255
I178
I176
tp1037
tp1038
ag1038
a(I1
(I255
I179
I183
tp1039
tp1040
ag1040
a(I1
(I255
I181
I186
tp1041
tp1042
ag1042
a(I1
(I255
I185
I189
tp1043
tp1044
ag1044
a(I1
(I255
I179
I183
tp1045
tp1046
ag1046
a(I1
(I255
I177
I181
tp1047
tp1048
ag1048
a(I1
(I255
I177
I181
tp1049
tp1050
ag1050
a(I2
(I255
I177
I179
tp1051
tp1052
ag1052
a(I1
(I255
I179
I182
tp1053
tp1054
ag1054
a(I1
(I255
I179
I182
tp1055
tp1056
ag1056
a(I1
(I255
I181
I181
tp1057
tp1058
ag1058
a(I2
(I255
I181
I181
tp1059
tp1060
ag1060
a(I2
(I255
I181
I181
tp1061
tp1062
ag1062
a(I1
(I255
I182
I182
tp1063
tp1064
ag1064
a(I2
(I255
I182
I182
tp1065
tp1066
ag1066
a(I1
(I255
I182
I182
tp1067
tp1068
ag1068
a(I1
(I255
I182
I182
tp1069
tp1070
ag1070
a(I1
(I255
I182
I182
tp1071
tp1072
ag1072
a(I1
(I255
I182
I182
tp1073
tp1074
ag1074
a(I1
(I255
I182
I182
tp1075
tp1076
ag1076
a(I1
(I255
I182
I182
tp1077
tp1078
ag1078
a(I1
(I255
I181
I181
tp1079
tp1080
ag1080
a(I1
(I255
I180
I180
tp1081
tp1082
ag1082
a(I1
(I255
I180
I180
tp1083
tp1084
ag1084
a(I1
(I255
I179
I178
tp1085
tp1086
ag1086
a(I1
(I255
I179
I177
tp1087
tp1088
ag1088
a(I1
(I255
I179
I177
tp1089
tp1090
ag1090
a(I1
(I255
I179
I177
tp1091
tp1092
ag1092
a(I1
(I255
I180
I178
tp1093
tp1094
ag1094
a(I2
(I255
I180
I178
tp1095
tp1096
ag1096
a(I3
(I255
I180
I178
tp1097
tp1098
ag1098
a(I3
(I255
I180
I178
tp1099
tp1100
ag1100
a(I2
(I255
I180
I178
tp1101
tp1102
ag1102
a(I2
(I255
I180
I178
tp1103
tp1104
ag1104
a(I2
(I255
I180
I178
tp1105
tp1106
ag1106
a(I2
(I255
I180
I178
tp1107
tp1108
ag1108
a(I2
(I255
I180
I178
tp1109
tp1110
ag1110
a(I2
(I255
I179
I175
tp1111
tp1112
ag1112
a(I2
(I255
I179
I175
tp1113
tp1114
ag1114
a(I2
(I255
I179
I175
tp1115
tp1116
ag1116
a(I2
(I255
I179
I175
tp1117
tp1118
ag1118
a(I2
(I255
I179
I175
tp1119
tp1120
ag1120
a(I2
(I255
I179
I175
tp1121
tp1122
ag1122
a(I2
(I255
I179
I175
tp1123
tp1124
ag1124
a(I2
(I255
I179
I175
tp1125
tp1126
ag1126
a(I2
(I255
I179
I175
tp1127
tp1128
ag1128
a(I2
(I255
I179
I175
tp1129
tp1130
ag1130
a(I2
(I255
I179
I175
tp1131
tp1132
ag1132
a(I2
(I255
I179
I175
tp1133
tp1134
ag1134
a(I2
(I255
I179
I175
tp1135
tp1136
ag1136
a(I1
(I255
I181
I176
tp1137
tp1138
ag1138
a(I1
(I255
I181
I176
tp1139
tp1140
ag1140
a(I1
(I255
I181
I176
tp1141
tp1142
ag1142
a(I1
(I255
I181
I176
tp1143
tp1144
ag1144
a(I1
(I255
I183
I178
tp1145
tp1146
ag1146
a(I1
(I255
I180
I178
tp1147
tp1148
ag1148
a(I1
(I255
I180
I178
tp1149
tp1150
ag1150
a(I1
(I255
I180
I178
tp1151
tp1152
ag1152
a(I1
(I255
I180
I178
tp1153
tp1154
ag1154
a(I2
(I255
I179
I177
tp1155
tp1156
ag1156
a(I2
(I255
I179
I177
tp1157
tp1158
ag1158
a(I2
(I255
I182
I178
tp1159
tp1160
ag1160
a(I2
(I255
I182
I178
tp1161
tp1162
ag1162
a(I2
(I255
I182
I178
tp1163
tp1164
ag1164
a(I2
(I255
I182
I178
tp1165
tp1166
ag1166
a(I1
(I255
I178
I176
tp1167
tp1168
ag1168
a(I1
(I255
I178
I176
tp1169
tp1170
ag1170
a(I4
(I255
I179
I175
tp1171
tp1172
ag1172
a(I1
(I255
I181
I176
tp1173
tp1174
ag1174
a(I1
(I255
I181
I176
tp1175
tp1176
ag1176
a(I1
(I255
I181
I176
tp1177
tp1178
ag1178
a(I1
(I255
I181
I176
tp1179
tp1180
ag1180
a(I1
(I255
I179
I175
tp1181
tp1182
ag1182
a(I1
(I255
I179
I175
tp1183
tp1184
ag1184
a(I1
(I255
I176
I178
tp1185
tp1186
ag1186
a(I1
(I255
I176
I178
tp1187
tp1188
ag1188
a(I1
(I255
I176
I178
tp1189
tp1190
ag1190
a(I1
(I255
I179
I175
tp1191
tp1192
ag1192
a(I2
(I255
I178
I176
tp1193
tp1194
ag1194
a(I2
(I255
I179
I177
tp1195
tp1196
ag1196
a(I2
(I255
I179
I177
tp1197
tp1198
ag1198
a(I1
(I255
I179
I177
tp1199
tp1200
ag1200
a(I2
(I255
I178
I176
tp1201
tp1202
ag1202
a(I1
(I255
I178
I174
tp1203
tp1204
ag1204
a(I1
(I255
I178
I174
tp1205
tp1206
ag1206
a(I1
(I255
I178
I174
tp1207
tp1208
ag1208
a(I1
(I255
I178
I174
tp1209
tp1210
ag1210
a(I1
(I255
I178
I174
tp1211
tp1212
ag1212
a(I2
(I255
I178
I176
tp1213
tp1214
ag1214
a(I1
(I255
I179
I176
tp1215
tp1216
ag1216
a(I1
(I255
I179
I176
tp1217
tp1218
ag1218
a(I1
(I255
I179
I176
tp1219
tp1220
ag1220
a(I1
(I255
I179
I176
tp1221
tp1222
ag1222
a(I1
(I255
I179
I176
tp1223
tp1224
ag1224
a(I1
(I255
I179
I176
tp1225
tp1226
ag1226
a(I1
(I255
I179
I176
tp1227
tp1228
ag1228
a(I1
(I255
I179
I176
tp1229
tp1230
ag1230
a(I1
(I255
I181
I176
tp1231
tp1232
ag1232
a(I1
(I255
I181
I176
tp1233
tp1234
ag1234
a(I1
(I255
I181
I176
tp1235
tp1236
ag1236
a(I1
(I255
I181
I176
tp1237
tp1238
ag1238
a(I1
(I255
I181
I176
tp1239
tp1240
ag1240
a(I1
(I255
I181
I176
tp1241
tp1242
ag1242
a(I1
(I255
I181
I176
tp1243
tp1244
ag1244
a(I1
(I255
I181
I176
tp1245
tp1246
ag1246
a(I1
(I255
I181
I176
tp1247
tp1248
ag1248
a(I1
(I255
I179
I176
tp1249
tp1250
ag1250
a(I1
(I255
I179
I177
tp1251
tp1252
ag1252
a(I2
(I255
I178
I176
tp1253
tp1254
ag1254
a(I2
(I255
I178
I176
tp1255
tp1256
ag1256
a(I2
(I255
I178
I176
tp1257
tp1258
ag1258
a(I1
(I255
I181
I176
tp1259
tp1260
ag1260
a(I1
(I255
I181
I176
tp1261
tp1262
ag1262
a(I1
(I255
I181
I176
tp1263
tp1264
ag1264
a(I1
(I255
I181
I176
tp1265
tp1266
ag1266
a(I1
(I255
I181
I176
tp1267
tp1268
ag1268
a(I1
(I255
I181
I176
tp1269
tp1270
ag1270
a(I1
(I255
I181
I176
tp1271
tp1272
ag1272
a(I1
(I255
I181
I176
tp1273
tp1274
ag1274
a(I2
(I255
I181
I176
tp1275
tp1276
ag1276
a(I1
(I255
I181
I176
tp1277
tp1278
ag1278
a(I1
(I255
I181
I176
tp1279
tp1280
ag1280
a(I1
(I255
I181
I176
tp1281
tp1282
ag1282
a(I1
(I255
I181
I176
tp1283
tp1284
ag1284
a(I1
(I255
I177
I178
tp1285
tp1286
ag1286
a(I1
(I255
I177
I178
tp1287
tp1288
ag1288
a(I1
(I255
I179
I176
tp1289
tp1290
ag1290
a(I1
(I255
I180
I178
tp1291
tp1292
ag1292
a(I1
(I255
I179
I178
tp1293
tp1294
ag1294
a(I1
(I255
I179
I178
tp1295
tp1296
ag1296
a(I1
(I255
I179
I178
tp1297
tp1298
ag1298
a(I1
(I255
I177
I177
tp1299
tp1300
ag1300
a(I1
(I255
I177
I177
tp1301
tp1302
ag1302
a(I1
(I255
I177
I178
tp1303
tp1304
ag1304
a(I1
(I255
I177
I178
tp1305
tp1306
ag1306
a(I1
(I255
I177
I178
tp1307
tp1308
ag1308
a(I1
(I255
I177
I178
tp1309
tp1310
ag1310
a(I1
(I255
I177
I178
tp1311
tp1312
ag1312
a(I1
(I255
I177
I178
tp1313
tp1314
ag1314
a(I1
(I255
I177
I178
tp1315
tp1316
ag1316
a(I1
(I255
I177
I178
tp1317
tp1318
ag1318
a(I1
(I255
I177
I178
tp1319
tp1320
ag1320
a(I1
(I255
I177
I178
tp1321
tp1322
ag1322
a(I1
(I255
I177
I178
tp1323
tp1324
ag1324
a(I1
(I255
I179
I178
tp1325
tp1326
ag1326
a(I1
(I255
I180
I180
tp1327
tp1328
ag1328
a(I1
(I255
I180
I180
tp1329
tp1330
ag1330
a(I1
(I255
I180
I180
tp1331
tp1332
ag1332
a(I1
(I255
I180
I180
tp1333
tp1334
ag1334
a(I1
(I255
I177
I177
tp1335
tp1336
ag1336
a(I1
(I255
I177
I177
tp1337
tp1338
ag1338
a(I1
(I255
I177
I177
tp1339
tp1340
ag1340
a(I1
(I255
I177
I177
tp1341
tp1342
ag1342
a(I1
(I255
I177
I177
tp1343
tp1344
ag1344
a(I1371
(I255
I255
I255
tp1345
tp1346
ag1346
a(I1345
(I255
I255
I255
tp1347
tp1348
ag1348
a(I1338
(I255
I255
I255
tp1349
tp1350
ag1350
a(I1046
(I255
I255
I255
tp1351
tp1352
ag1352
a(I1001
(I255
I255
I255
tp1353
tp1354
ag1354
a(I1147
(I255
I255
I255
tp1355
tp1356
ag1356
a(I1213
(I255
I255
I255
tp1357
tp1358
ag1358
a(I1161
(I255
I255
I255
tp1359
tp1360
ag1360
a(I1155
(I255
I255
I255
tp1361
tp1362
ag1362
a(I1155
(I255
I255
I255
tp1363
tp1364
ag1364
a(I1155
(I255
I255
I255
tp1365
tp1366
ag1366
a(I1072
(I255
I255
I255
tp1367
tp1368
ag1368
a(I1220
(I255
I255
I255
tp1369
tp1370
ag1370
a(I1223
(I255
I255
I255
tp1371
tp1372
ag1372
a(I1268
(I255
I255
I255
tp1373
tp1374
ag1374
a(I1332
(I255
I255
I255
tp1375
tp1376
ag1376
a(I1236
(I255
I255
I255
tp1377
tp1378
ag1378
a(I2055
(I255
I255
I255
tp1379
tp1380
ag1380
a(I3435
(I255
I255
I255
tp1381
tp1382
ag1382
a(I16235
(I255
I255
I255
tp1383
tp1384
ag1384
a(I7946
(I255
I255
I255
tp1385
tp1386
ag1386
a(I7953
(I255
I255
I255
tp1387
tp1388
ag1388
a(I1850
(I255
I255
I255
tp1389
tp1390
ag1390
a(I1314
(I255
I255
I255
tp1391
tp1392
ag1392
a(I4295
(I255
I255
I255
tp1393
tp1394
ag1394
a(I11149
(I255
I255
I255
tp1395
tp1396
ag1396
a(I26729
(I255
I255
I255
tp1397
tp1398
ag1398
a(I15065
(I255
I255
I255
tp1399
tp1400
ag1400
a(I9769
(I255
I255
I255
tp1401
tp1402
ag1402
a(I3411
(I255
I255
I255
tp1403
tp1404
ag1404
a(I2553
(I255
I255
I255
tp1405
tp1406
ag1406
a(I1132
(I255
I255
I255
tp1407
tp1408
ag1408
a(I1274
(I255
I255
I255
tp1409
tp1410
ag1410
a(I1562
(I255
I255
I255
tp1411
tp1412
ag1412
a(I1265
(I255
I255
I255
tp1413
tp1414
ag1414
a(I1282
(I255
I255
I255
tp1415
tp1416
ag1416
a(I1258
(I255
I255
I255
tp1417
tp1418
ag1418
a(I1194
(I255
I255
I255
tp1419
tp1420
ag1420
a(I1168
(I255
I255
I255
tp1421
tp1422
ag1422
a(I1198
(I255
I255
I255
tp1423
tp1424
ag1424
a(I4169
(I255
I255
I255
tp1425
tp1426
ag1426
a(I2476
(I255
I255
I255
tp1427
tp1428
ag1428
a(I17793
(I255
I255
I255
tp1429
tp1430
ag1430
a(I24283
(I255
I255
I255
tp1431
tp1432
ag1432
a(I7410
(I255
I255
I255
tp1433
tp1434
ag1434
a(I3241
(I255
I255
I255
tp1435
tp1436
ag1436
a(I1552
(I255
I255
I255
tp1437
tp1438
ag1438
a(I1421
(I255
I255
I255
tp1439
tp1440
ag1440
a(I1163
(I255
I255
I255
tp1441
tp1442
ag1442
a(I1167
(I255
I255
I255
tp1443
tp1444
ag1444
a(I2580
(I255
I255
I255
tp1445
tp1446
ag1446
a(I1387
(I255
I255
I255
tp1447
tp1448
ag1448
a(I12222
(I255
I255
I255
tp1449
tp1450
ag1450
a(I16266
(I255
I255
I255
tp1451
tp1452
ag1452
a(I10082
(I255
I255
I255
tp1453
tp1454
ag1454
a(I557
(I255
I255
I255
tp1455
tp1456
ag1456
a(I1209
(I255
I255
I255
tp1457
tp1458
ag1458
a(I1265
(I255
I255
I255
tp1459
tp1460
ag1460
a(I1043
(I255
I255
I255
tp1461
tp1462
ag1462
a(I1105
(I255
I255
I255
tp1463
tp1464
ag1464
a(I1796
(I255
I255
I255
tp1465
tp1466
ag1466
a(I4215
(I255
I255
I255
tp1467
tp1468
ag1468
a(I16226
(I255
I255
I255
tp1469
tp1470
ag1470
a(I22259
(I255
I255
I255
tp1471
tp1472
ag1472
a(I14492
(I255
I255
I255
tp1473
tp1474
ag1474
a(I2962
(I255
I255
I255
tp1475
tp1476
ag1476
a(I2824
(I255
I255
I255
tp1477
tp1478
ag1478
a(I3204
(I255
I255
I255
tp1479
tp1480
ag1480
a(I3178
(I255
I255
I255
tp1481
tp1482
ag1482
a(I3940
(I255
I255
I255
tp1483
tp1484
ag1484
a(I6191
(I255
I255
I255
tp1485
tp1486
ag1486
a(I14424
(I255
I255
I255
tp1487
tp1488
ag1488
a(I12281
(I255
I255
I255
tp1489
tp1490
ag1490
a(I18227
(I255
I255
I255
tp1491
tp1492
ag1492
a(I8673
(I255
I255
I255
tp1493
tp1494
ag1494
a(I11783
(I255
I255
I255
tp1495
tp1496
ag1496
a(I4862
(I255
I255
I255
tp1497
tp1498
ag1498
a(I1791
(I255
I255
I255
tp1499
tp1500
ag1500
a(I1388
(I255
I255
I255
tp1501
tp1502
ag1502
a(I864
(I255
I255
I255
tp1503
tp1504
ag1504
a(I818
(I255
I255
I255
tp1505
tp1506
ag1506
a(I981
(I255
I255
I255
tp1507
tp1508
ag1508
a(I898
(I255
I255
I255
tp1509
tp1510
ag1510
a(I1008
(I255
I255
I255
tp1511
tp1512
ag1512
a(I1422
(I255
I255
I255
tp1513
tp1514
ag1514
a(I1693
(I255
I255
I255
tp1515
tp1516
ag1516
a(I1848
(I255
I255
I255
tp1517
tp1518
ag1518
a(I1701
(I255
I255
I255
tp1519
tp1520
ag1520
a(I1591
(I255
I255
I255
tp1521
tp1522
ag1522
a(I1945
(I255
I255
I255
tp1523
tp1524
ag1524
a(I1697
(I255
I255
I255
tp1525
tp1526
ag1526
a(I1800
(I255
I255
I255
tp1527
tp1528
ag1528
a(I1703
(I255
I255
I255
tp1529
tp1530
ag1530
a(I1512
(I255
I255
I255
tp1531
tp1532
ag1532
a(I1527
(I255
I255
I255
tp1533
tp1534
ag1534
a(I1554
(I255
I255
I255
tp1535
tp1536
ag1536
a(I1586
(I255
I255
I255
tp1537
tp1538
ag1538
a(I1342
(I255
I255
I255
tp1539
tp1540
ag1540
a(I1274
(I255
I255
I255
tp1541
tp1542
ag1542
a(I1278
(I255
I255
I255
tp1543
tp1544
ag1544
a(I1355
(I255
I255
I255
tp1545
tp1546
ag1546
a(I1301
(I255
I255
I255
tp1547
tp1548
ag1548
a(I1283
(I255
I255
I255
tp1549
tp1550
ag1550
a(I1333
(I255
I255
I255
tp1551
tp1552
ag1552
a(I1259
(I255
I255
I255
tp1553
tp1554
ag1554
a(I1272
(I255
I255
I255
tp1555
tp1556
ag1556
a(I1205
(I255
I255
I255
tp1557
tp1558
ag1558
a(I1178
(I255
I255
I255
tp1559
tp1560
ag1560
a(I1089
(I255
I255
I255
tp1561
tp1562
ag1562
a(I1144
(I255
I255
I255
tp1563
tp1564
ag1564
a(I1182
(I255
I255
I255
tp1565
tp1566
ag1566
a(I1228
(I255
I255
I255
tp1567
tp1568
ag1568
a(I1166
(I255
I255
I255
tp1569
tp1570
ag1570
a(I1145
(I255
I255
I255
tp1571
tp1572
ag1572
a(I1128
(I255
I255
I255
tp1573
tp1574
ag1574
a(I1127
(I255
I255
I255
tp1575
tp1576
ag1576
a(I1131
(I255
I255
I255
tp1577
tp1578
ag1578
a(I1095
(I255
I255
I255
tp1579
tp1580
ag1580
a(I1090
(I255
I255
I255
tp1581
tp1582
ag1582
a(I1032
(I255
I255
I255
tp1583
tp1584
ag1584
a(I1019
(I255
I255
I255
tp1585
tp1586
ag1586
a(I1119
(I255
I255
I255
tp1587
tp1588
ag1588
a(I1038
(I255
I255
I255
tp1589
tp1590
ag1590
a(I1016
(I255
I255
I255
tp1591
tp1592
ag1592
a(I991
(I255
I255
I255
tp1593
tp1594
ag1594
a(I991
(I255
I255
I255
tp1595
tp1596
ag1596
a(I992
(I255
I255
I255
tp1597
tp1598
ag1598
a(I1008
(I255
I255
I255
tp1599
tp1600
ag1600
a(I1036
(I255
I255
I255
tp1601
tp1602
ag1602
a(I1027
(I255
I255
I255
tp1603
tp1604
ag1604
a(I1021
(I255
I255
I255
tp1605
tp1606
ag1606
a(I1091
(I255
I255
I255
tp1607
tp1608
ag1608
a(I1072
(I255
I255
I255
tp1609
tp1610
ag1610
a(I1066
(I255
I255
I255
tp1611
tp1612
ag1612
a(I1077
(I255
I255
I255
tp1613
tp1614
ag1614
a(I1105
(I255
I255
I255
tp1615
tp1616
ag1616
a(I1065
(I255
I255
I255
tp1617
tp1618
ag1618
a(I1054
(I255
I255
I255
tp1619
tp1620
ag1620
a(I943
(I255
I255
I255
tp1621
tp1622
ag1622
a(I922
(I255
I255
I255
tp1623
tp1624
ag1624
a(I922
(I255
I255
I255
tp1625
tp1626
ag1626
a(I957
(I255
I255
I255
tp1627
tp1628
ag1628
a(I990
(I255
I255
I255
tp1629
tp1630
ag1630
a.